target datalayout = "e-m:e-p270:32:32-p271:32:32-p272:64:64-i64:64-i128:128-f80:128-n8:16:32:64-S128"
target triple = "x86_64-pc-linux-gnu"

%class.RtpAudioFile = type { %class.QIODevice, ptr, ptr, i64, i64, i64, i64, %struct.rtp_frame_info }
%class.QIODevice = type { %class.QObject }
%class.QObject = type { ptr, %class.QScopedPointer }
%class.QScopedPointer = type { ptr }
%struct.rtp_frame_info = type { i64, i64, i64, i32, i32 }

; Function Attrs: mustprogress uwtable
define noundef i64 @_ZN12RtpAudioFile15frameWriteFrameEjxxx14rtp_frame_type(ptr noundef nonnull align 8 dereferenceable(96) %0, i32 noundef %1, i64 noundef %2, i64 noundef %3, i64 noundef %4, i32 noundef %5) #0 align 2 {
  %7 = alloca ptr, align 8
  %8 = alloca i32, align 4
  %9 = alloca i64, align 8
  %10 = alloca i64, align 8
  %11 = alloca i64, align 8
  %12 = alloca i32, align 4
  %13 = alloca %struct.rtp_frame_info, align 8
  store ptr %0, ptr %7, align 8
  store i32 %1, ptr %8, align 4
  store i64 %2, ptr %9, align 8
  store i64 %3, ptr %10, align 8
  store i64 %4, ptr %11, align 8
  store i32 %5, ptr %12, align 4
  %14 = load ptr, ptr %7, align 8
  %15 = load i64, ptr %9, align 8
  %16 = getelementptr inbounds %struct.rtp_frame_info, ptr %13, i32 0, i32 0
  store i64 %15, ptr %16, align 8
  %17 = load i64, ptr %10, align 8
  %18 = getelementptr inbounds %struct.rtp_frame_info, ptr %13, i32 0, i32 1
  store i64 %17, ptr %18, align 8
  %19 = load i64, ptr %11, align 8
  %20 = getelementptr inbounds %struct.rtp_frame_info, ptr %13, i32 0, i32 2
  store i64 %19, ptr %20, align 8
  %21 = load i32, ptr %8, align 4
  %22 = getelementptr inbounds %struct.rtp_frame_info, ptr %13, i32 0, i32 3
  store i32 %21, ptr %22, align 8
  %23 = load i32, ptr %12, align 4
  %24 = getelementptr inbounds %struct.rtp_frame_info, ptr %13, i32 0, i32 4
  store i32 %23, ptr %24, align 4
  %25 = getelementptr inbounds %class.RtpAudioFile, ptr %14, i32 0, i32 2
  %26 = load ptr, ptr %25, align 8
  %27 = call noundef i64 @_ZN9QIODevice5writeEPKcx(ptr noundef nonnull align 8 dereferenceable(16) %26, ptr noundef %13, i64 noundef 32)
  ret i64 %27
}