; Function Attrs: mustprogress uwtable
define noundef i64 @_ZN12RtpAudioFile15frameWriteFrameEjxxx14rtp_frame_type(ptr nocapture noundef nonnull readonly align 8 dereferenceable(96) %0, i32 noundef %1, i64 noundef %2, i64 noundef %3, i64 noundef %4, i32 noundef %5) local_unnamed_addr #0 align 2 {
  %7 = alloca %struct.rtp_frame_info, align 8
  store i64 %2, ptr %7, align 8
  %8 = getelementptr inbounds i8, ptr %7, i64 8
  store i64 %3, ptr %8, align 8
  %9 = getelementptr inbounds i8, ptr %7, i64 16
  store i64 %4, ptr %9, align 8
  %10 = getelementptr inbounds i8, ptr %7, i64 24
  store i32 %1, ptr %10, align 8
  %11 = getelementptr inbounds i8, ptr %7, i64 28
  store i32 %5, ptr %11, align 4
  %12 = getelementptr inbounds i8, ptr %0, i64 24
  %13 = load ptr, ptr %12, align 8
  %14 = call noundef i64 @_ZN9QIODevice5writeEPKcx(ptr noundef nonnull align 8 dereferenceable(16) %13, ptr noundef nonnull %7, i64 noundef 32)
  ret i64 %14
}